
main:     file format elf64-x86-64
main
architecture: i386:x86-64, flags 0x00000112:
EXEC_P, HAS_SYMS, D_PAGED
start address 0x0000000000401020

Program Header:
    PHDR off    0x0000000000000040 vaddr 0x0000000000400040 paddr 0x0000000000400040 align 2**3
         filesz 0x0000000000000310 memsz 0x0000000000000310 flags r--
  INTERP off    0x0000000000000374 vaddr 0x0000000000400374 paddr 0x0000000000400374 align 2**0
         filesz 0x000000000000001c memsz 0x000000000000001c flags r--
    LOAD off    0x0000000000000000 vaddr 0x0000000000400000 paddr 0x0000000000400000 align 2**12
         filesz 0x0000000000000548 memsz 0x0000000000000548 flags r--
    LOAD off    0x0000000000001000 vaddr 0x0000000000401000 paddr 0x0000000000401000 align 2**12
         filesz 0x0000000000000129 memsz 0x0000000000000129 flags r-x
    LOAD off    0x0000000000002000 vaddr 0x0000000000402000 paddr 0x0000000000402000 align 2**12
         filesz 0x00000000000000f0 memsz 0x00000000000000f0 flags r--
    LOAD off    0x0000000000002df8 vaddr 0x0000000000403df8 paddr 0x0000000000403df8 align 2**12
         filesz 0x0000000000000218 memsz 0x0000000000000220 flags rw-
 DYNAMIC off    0x0000000000002e08 vaddr 0x0000000000403e08 paddr 0x0000000000403e08 align 2**3
         filesz 0x00000000000001c0 memsz 0x00000000000001c0 flags rw-
    NOTE off    0x0000000000000350 vaddr 0x0000000000400350 paddr 0x0000000000400350 align 2**2
         filesz 0x0000000000000024 memsz 0x0000000000000024 flags r--
    NOTE off    0x0000000000002090 vaddr 0x0000000000402090 paddr 0x0000000000402090 align 2**3
         filesz 0x0000000000000040 memsz 0x0000000000000040 flags r--
    NOTE off    0x00000000000020d0 vaddr 0x00000000004020d0 paddr 0x00000000004020d0 align 2**2
         filesz 0x0000000000000020 memsz 0x0000000000000020 flags r--
0x6474e553 off    0x0000000000002090 vaddr 0x0000000000402090 paddr 0x0000000000402090 align 2**3
         filesz 0x0000000000000040 memsz 0x0000000000000040 flags r--
EH_FRAME off    0x0000000000002004 vaddr 0x0000000000402004 paddr 0x0000000000402004 align 2**2
         filesz 0x0000000000000024 memsz 0x0000000000000024 flags r--
   STACK off    0x0000000000000000 vaddr 0x0000000000000000 paddr 0x0000000000000000 align 2**4
         filesz 0x0000000000000000 memsz 0x0000000000000000 flags rw-
   RELRO off    0x0000000000002df8 vaddr 0x0000000000403df8 paddr 0x0000000000403df8 align 2**0
         filesz 0x0000000000000208 memsz 0x0000000000000208 flags r--

Dynamic Section:
  NEEDED               libstdc++.so.6
  NEEDED               libm.so.6
  NEEDED               libgcc_s.so.1
  NEEDED               libc.so.6
  INIT                 0x0000000000401000
  FINI                 0x000000000040111c
  INIT_ARRAY           0x0000000000403df8
  INIT_ARRAYSZ         0x0000000000000008
  FINI_ARRAY           0x0000000000403e00
  FINI_ARRAYSZ         0x0000000000000008
  GNU_HASH             0x0000000000400390
  STRTAB               0x0000000000400428
  SYMTAB               0x00000000004003b0
  STRSZ                0x0000000000000094
  SYMENT               0x0000000000000018
  DEBUG                0x0000000000000000
  RELA                 0x00000000004004e8
  RELASZ               0x0000000000000060
  RELAENT              0x0000000000000018
  VERNEED              0x00000000004004c8
  VERNEEDNUM           0x0000000000000001
  VERSYM               0x00000000004004bc

Version References:
  required from libc.so.6:
    0x069691b4 0x00 02 GLIBC_2.34

Sections:
Idx Name          Size      VMA               LMA               File off  Algn
  0 .note.gnu.build-id 00000024  0000000000400350  0000000000400350  00000350  2**2
                  CONTENTS, ALLOC, LOAD, READONLY, DATA
  1 .interp       0000001c  0000000000400374  0000000000400374  00000374  2**0
                  CONTENTS, ALLOC, LOAD, READONLY, DATA
  2 .gnu.hash     0000001c  0000000000400390  0000000000400390  00000390  2**3
                  CONTENTS, ALLOC, LOAD, READONLY, DATA
  3 .dynsym       00000078  00000000004003b0  00000000004003b0  000003b0  2**3
                  CONTENTS, ALLOC, LOAD, READONLY, DATA
  4 .dynstr       00000094  0000000000400428  0000000000400428  00000428  2**0
                  CONTENTS, ALLOC, LOAD, READONLY, DATA
  5 .gnu.version  0000000a  00000000004004bc  00000000004004bc  000004bc  2**1
                  CONTENTS, ALLOC, LOAD, READONLY, DATA
  6 .gnu.version_r 00000020  00000000004004c8  00000000004004c8  000004c8  2**3
                  CONTENTS, ALLOC, LOAD, READONLY, DATA
  7 .rela.dyn     00000060  00000000004004e8  00000000004004e8  000004e8  2**3
                  CONTENTS, ALLOC, LOAD, READONLY, DATA
  8 .init         0000001b  0000000000401000  0000000000401000  00001000  2**2
                  CONTENTS, ALLOC, LOAD, READONLY, CODE
  9 .text         000000fa  0000000000401020  0000000000401020  00001020  2**4
                  CONTENTS, ALLOC, LOAD, READONLY, CODE
 10 .fini         0000000d  000000000040111c  000000000040111c  0000111c  2**2
                  CONTENTS, ALLOC, LOAD, READONLY, CODE
 11 .rodata       00000004  0000000000402000  0000000000402000  00002000  2**2
                  CONTENTS, ALLOC, LOAD, READONLY, DATA
 12 .eh_frame_hdr 00000024  0000000000402004  0000000000402004  00002004  2**2
                  CONTENTS, ALLOC, LOAD, READONLY, DATA
 13 .eh_frame     00000064  0000000000402028  0000000000402028  00002028  2**3
                  CONTENTS, ALLOC, LOAD, READONLY, DATA
 14 .note.gnu.property 00000040  0000000000402090  0000000000402090  00002090  2**3
                  CONTENTS, ALLOC, LOAD, READONLY, DATA
 15 .note.ABI-tag 00000020  00000000004020d0  00000000004020d0  000020d0  2**2
                  CONTENTS, ALLOC, LOAD, READONLY, DATA
 16 .init_array   00000008  0000000000403df8  0000000000403df8  00002df8  2**3
                  CONTENTS, ALLOC, LOAD, DATA
 17 .fini_array   00000008  0000000000403e00  0000000000403e00  00002e00  2**3
                  CONTENTS, ALLOC, LOAD, DATA
 18 .dynamic      000001c0  0000000000403e08  0000000000403e08  00002e08  2**3
                  CONTENTS, ALLOC, LOAD, DATA
 19 .got          00000020  0000000000403fc8  0000000000403fc8  00002fc8  2**3
                  CONTENTS, ALLOC, LOAD, DATA
 20 .got.plt      00000018  0000000000403fe8  0000000000403fe8  00002fe8  2**3
                  CONTENTS, ALLOC, LOAD, DATA
 21 .data         00000010  0000000000404000  0000000000404000  00003000  2**3
                  CONTENTS, ALLOC, LOAD, DATA
 22 .bss          00000008  0000000000404010  0000000000404010  00003010  2**0
                  ALLOC
 23 .comment      0000001b  0000000000000000  0000000000000000  00003010  2**0
                  CONTENTS, READONLY
 24 data          00000008  0000000000000000  0000000000000000  0000302b  2**0
                  CONTENTS, READONLY
 25 data.structs  0000000c  0000000000000000  0000000000000000  00003033  2**0
                  CONTENTS, READONLY
 26 data.strings  00000006  0000000000000000  0000000000000000  0000303f  2**0
                  CONTENTS, READONLY
SYMBOL TABLE:
0000000000000000 l    df *ABS*	0000000000000000              crt1.o
00000000004020d0 l     O .note.ABI-tag	0000000000000020              __abi_tag
0000000000000000 l    df *ABS*	0000000000000000              crtbegin.o
0000000000401060 l     F .text	0000000000000000              deregister_tm_clones
0000000000401090 l     F .text	0000000000000000              register_tm_clones
00000000004010d0 l     F .text	0000000000000000              __do_global_dtors_aux
0000000000404010 l     O .bss	0000000000000001              completed.0
0000000000403e00 l     O .fini_array	0000000000000000              __do_global_dtors_aux_fini_array_entry
0000000000401100 l     F .text	0000000000000000              frame_dummy
0000000000403df8 l     O .init_array	0000000000000000              __frame_dummy_init_array_entry
0000000000000000 l    df *ABS*	0000000000000000              main.cpp
0000000000000000 l    df *ABS*	0000000000000000              crtend.o
0000000000402088 l     O .eh_frame	0000000000000000              __FRAME_END__
0000000000000000 l    df *ABS*	0000000000000000              
0000000000402004 l       .eh_frame_hdr	0000000000000000              __GNU_EH_FRAME_HDR
0000000000403e08 l     O .dynamic	0000000000000000              _DYNAMIC
0000000000403fe8 l     O .got.plt	0000000000000000              _GLOBAL_OFFSET_TABLE_
0000000000404010 g       .data	0000000000000000              _edata
0000000000404000  w      .data	0000000000000000              data_start
0000000000402000 g     O .rodata	0000000000000004              _IO_stdin_used
0000000000401106 g     F .text	0000000000000014              main
0000000000404008 g     O .data	0000000000000000              .hidden __dso_handle
000000000040111c g     F .fini	0000000000000000              .hidden _fini
0000000000000000       F *UND*	0000000000000000              __libc_start_main@GLIBC_2.34
0000000000401050 g     F .text	0000000000000005              .hidden _dl_relocate_static_pie
0000000000401020 g     F .text	0000000000000026              _start
0000000000401000 g     F .init	0000000000000000              .hidden _init
0000000000404010 g     O .data	0000000000000000              .hidden __TMC_END__
0000000000404000 g       .data	0000000000000000              __data_start
0000000000404018 g       .bss	0000000000000000              _end
0000000000404010 g       .bss	0000000000000000              __bss_start
0000000000000000  w      *UND*	0000000000000000              _ITM_deregisterTMCloneTable
0000000000000000  w      *UND*	0000000000000000              __gmon_start__
0000000000000000  w      *UND*	0000000000000000              _ITM_registerTMCloneTable


Contents of section .note.gnu.build-id:
 400350 04000000 14000000 03000000 474e5500  ............GNU.
 400360 40059461 af7ff645 04750f5d 434d8fe5  @..a...E.u.]CM..
 400370 f4de2461                             ..$a            
Contents of section .interp:
 400374 2f6c6962 36342f6c 642d6c69 6e75782d  /lib64/ld-linux-
 400384 7838362d 36342e73 6f2e3200           x86-64.so.2.    
Contents of section .gnu.hash:
 400390 01000000 01000000 01000000 00000000  ................
 4003a0 00000000 00000000 00000000           ............    
Contents of section .dynsym:
 4003b0 00000000 00000000 00000000 00000000  ................
 4003c0 00000000 00000000 46000000 12000000  ........F.......
 4003d0 00000000 00000000 00000000 00000000  ................
 4003e0 10000000 20000000 00000000 00000000  .... ...........
 4003f0 00000000 00000000 01000000 20000000  ............ ...
 400400 00000000 00000000 00000000 00000000  ................
 400410 2c000000 20000000 00000000 00000000  ,... ...........
 400420 00000000 00000000                    ........        
Contents of section .dynstr:
 400428 005f5f67 6d6f6e5f 73746172 745f5f00  .__gmon_start__.
 400438 5f49544d 5f646572 65676973 74657254  _ITM_deregisterT
 400448 4d436c6f 6e655461 626c6500 5f49544d  MCloneTable._ITM
 400458 5f726567 69737465 72544d43 6c6f6e65  _registerTMClone
 400468 5461626c 65005f5f 6c696263 5f737461  Table.__libc_sta
 400478 72745f6d 61696e00 6c696273 7464632b  rt_main.libstdc+
 400488 2b2e736f 2e36006c 69626d2e 736f2e36  +.so.6.libm.so.6
 400498 006c6962 6763635f 732e736f 2e31006c  .libgcc_s.so.1.l
 4004a8 6962632e 736f2e36 00474c49 42435f32  ibc.so.6.GLIBC_2
 4004b8 2e333400                             .34.            
Contents of section .gnu.version:
 4004bc 00000200 00000000 0000               ..........      
Contents of section .gnu.version_r:
 4004c8 01000100 7f000000 10000000 00000000  ................
 4004d8 b4919606 00000200 89000000 00000000  ................
Contents of section .rela.dyn:
 4004e8 c83f4000 00000000 06000000 01000000  .?@.............
 4004f8 00000000 00000000 d03f4000 00000000  .........?@.....
 400508 06000000 02000000 00000000 00000000  ................
 400518 d83f4000 00000000 06000000 03000000  .?@.............
 400528 00000000 00000000 e03f4000 00000000  .........?@.....
 400538 06000000 04000000 00000000 00000000  ................
Contents of section .init:
 401000 f30f1efa 4883ec08 488b05c9 2f000048  ....H...H.../..H
 401010 85c07402 ffd04883 c408c3             ..t...H....     
Contents of section .text:
 401020 f30f1efa 31ed4989 d15e4889 e24883e4  ....1.I..^H..H..
 401030 f0505445 31c031c9 48c7c706 114000ff  .PTE1.1.H....@..
 401040 15832f00 00f4662e 0f1f8400 00000000  ../...f.........
 401050 f30f1efa c3662e0f 1f840000 00000090  .....f..........
 401060 b8104040 00483d10 40400074 13488b05  ..@@.H=.@@.t.H..
 401070 5c2f0000 4885c074 07bf1040 4000ffe0  \/..H..t...@@...
 401080 c30f1f40 0066662e 0f1f8400 00000000  ...@.ff.........
 401090 be104040 004881ee 10404000 4889f048  ..@@.H...@@.H..H
 4010a0 c1ee3f48 c1f80348 01c648d1 fe741948  ..?H...H..H..t.H
 4010b0 8b052a2f 00004885 c0740dbf 10404000  ..*/..H..t...@@.
 4010c0 ffe0660f 1f440000 c30f1f80 00000000  ..f..D..........
 4010d0 f30f1efa 803d352f 00000075 13554889  .....=5/...u.UH.
 4010e0 e5e87aff ffffc605 232f0000 015dc390  ..z.....#/...]..
 4010f0 c30f1f40 0066662e 0f1f8400 00000000  ...@.ff.........
 401100 f30f1efa eb8a5548 89e58b45 fc8d05ed  ......UH...E....
 401110 eebfffb8 00000000 5dc3               ........].      
Contents of section .fini:
 40111c f30f1efa 4883ec08 4883c408 c3        ....H...H....   
Contents of section .rodata:
 402000 01000200                             ....            
Contents of section .eh_frame_hdr:
 402004 011b033b 20000000 03000000 1cf0ffff  ...; ...........
 402014 3c000000 4cf0ffff 50000000 02f1ffff  <...L...P.......
 402024 64000000                             d...            
Contents of section .eh_frame:
 402028 14000000 00000000 017a5200 01781001  .........zR..x..
 402038 1b0c0708 90010000 10000000 1c000000  ................
 402048 d8efffff 26000000 00440710 10000000  ....&....D......
 402058 30000000 f4efffff 05000000 00000000  0...............
 402068 1c000000 44000000 96f0ffff 14000000  ....D...........
 402078 00410e10 8602430d 064f0c07 08000000  .A....C..O......
 402088 00000000                             ....            
Contents of section .note.gnu.property:
 402090 04000000 30000000 05000000 474e5500  ....0.......GNU.
 4020a0 028000c0 04000000 01000000 00000000  ................
 4020b0 010001c0 04000000 01000000 00000000  ................
 4020c0 020001c0 04000000 01000000 00000000  ................
Contents of section .note.ABI-tag:
 4020d0 04000000 10000000 01000000 474e5500  ............GNU.
 4020e0 00000000 04000000 04000000 00000000  ................
Contents of section .init_array:
 403df8 00114000 00000000                    ..@.....        
Contents of section .fini_array:
 403e00 d0104000 00000000                    ..@.....        
Contents of section .dynamic:
 403e08 01000000 00000000 58000000 00000000  ........X.......
 403e18 01000000 00000000 67000000 00000000  ........g.......
 403e28 01000000 00000000 71000000 00000000  ........q.......
 403e38 01000000 00000000 7f000000 00000000  ................
 403e48 0c000000 00000000 00104000 00000000  ..........@.....
 403e58 0d000000 00000000 1c114000 00000000  ..........@.....
 403e68 19000000 00000000 f83d4000 00000000  .........=@.....
 403e78 1b000000 00000000 08000000 00000000  ................
 403e88 1a000000 00000000 003e4000 00000000  .........>@.....
 403e98 1c000000 00000000 08000000 00000000  ................
 403ea8 f5feff6f 00000000 90034000 00000000  ...o......@.....
 403eb8 05000000 00000000 28044000 00000000  ........(.@.....
 403ec8 06000000 00000000 b0034000 00000000  ..........@.....
 403ed8 0a000000 00000000 94000000 00000000  ................
 403ee8 0b000000 00000000 18000000 00000000  ................
 403ef8 15000000 00000000 00000000 00000000  ................
 403f08 07000000 00000000 e8044000 00000000  ..........@.....
 403f18 08000000 00000000 60000000 00000000  ........`.......
 403f28 09000000 00000000 18000000 00000000  ................
 403f38 feffff6f 00000000 c8044000 00000000  ...o......@.....
 403f48 ffffff6f 00000000 01000000 00000000  ...o............
 403f58 f0ffff6f 00000000 bc044000 00000000  ...o......@.....
 403f68 00000000 00000000 00000000 00000000  ................
 403f78 00000000 00000000 00000000 00000000  ................
 403f88 00000000 00000000 00000000 00000000  ................
 403f98 00000000 00000000 00000000 00000000  ................
 403fa8 00000000 00000000 00000000 00000000  ................
 403fb8 00000000 00000000 00000000 00000000  ................
Contents of section .got:
 403fc8 00000000 00000000 00000000 00000000  ................
 403fd8 00000000 00000000 00000000 00000000  ................
Contents of section .got.plt:
 403fe8 083e4000 00000000 00000000 00000000  .>@.............
 403ff8 00000000 00000000                    ........        
Contents of section .data:
 404000 00000000 00000000 00000000 00000000  ................
Contents of section .comment:
 0000 4743433a 2028474e 55292031 352e322e  GCC: (GNU) 15.2.
 0010 31203230 32363032 303900             1 20260209.     
Contents of section data:
 0000 00000000 00000000                    ........        
Contents of section data.structs:
 0000 05000000 00000000 00000000           ............    
Contents of section data.strings:
 0000 776f726c 6400                        world.          

Disassembly of section .init:

0000000000401000 <_init>:
  401000:	f3 0f 1e fa          	endbr64
  401004:	48 83 ec 08          	sub    $0x8,%rsp
  401008:	48 8b 05 c9 2f 00 00 	mov    0x2fc9(%rip),%rax        # 403fd8 <__gmon_start__>
  40100f:	48 85 c0             	test   %rax,%rax
  401012:	74 02                	je     401016 <_init+0x16>
  401014:	ff d0                	call   *%rax
  401016:	48 83 c4 08          	add    $0x8,%rsp
  40101a:	c3                   	ret

Disassembly of section .text:

0000000000401020 <_start>:
  401020:	f3 0f 1e fa          	endbr64
  401024:	31 ed                	xor    %ebp,%ebp
  401026:	49 89 d1             	mov    %rdx,%r9
  401029:	5e                   	pop    %rsi
  40102a:	48 89 e2             	mov    %rsp,%rdx
  40102d:	48 83 e4 f0          	and    $0xfffffffffffffff0,%rsp
  401031:	50                   	push   %rax
  401032:	54                   	push   %rsp
  401033:	45 31 c0             	xor    %r8d,%r8d
  401036:	31 c9                	xor    %ecx,%ecx
  401038:	48 c7 c7 06 11 40 00 	mov    $0x401106,%rdi
  40103f:	ff 15 83 2f 00 00    	call   *0x2f83(%rip)        # 403fc8 <__libc_start_main@GLIBC_2.34>
  401045:	f4                   	hlt
  401046:	66 2e 0f 1f 84 00 00 	cs nopw 0x0(%rax,%rax,1)
  40104d:	00 00 00 

0000000000401050 <_dl_relocate_static_pie>:
  401050:	f3 0f 1e fa          	endbr64
  401054:	c3                   	ret
  401055:	66 2e 0f 1f 84 00 00 	cs nopw 0x0(%rax,%rax,1)
  40105c:	00 00 00 
  40105f:	90                   	nop

0000000000401060 <deregister_tm_clones>:
  401060:	b8 10 40 40 00       	mov    $0x404010,%eax
  401065:	48 3d 10 40 40 00    	cmp    $0x404010,%rax
  40106b:	74 13                	je     401080 <deregister_tm_clones+0x20>
  40106d:	48 8b 05 5c 2f 00 00 	mov    0x2f5c(%rip),%rax        # 403fd0 <_ITM_deregisterTMCloneTable>
  401074:	48 85 c0             	test   %rax,%rax
  401077:	74 07                	je     401080 <deregister_tm_clones+0x20>
  401079:	bf 10 40 40 00       	mov    $0x404010,%edi
  40107e:	ff e0                	jmp    *%rax
  401080:	c3                   	ret
  401081:	0f 1f 40 00          	nopl   0x0(%rax)
  401085:	66 66 2e 0f 1f 84 00 	data16 cs nopw 0x0(%rax,%rax,1)
  40108c:	00 00 00 00 

0000000000401090 <register_tm_clones>:
  401090:	be 10 40 40 00       	mov    $0x404010,%esi
  401095:	48 81 ee 10 40 40 00 	sub    $0x404010,%rsi
  40109c:	48 89 f0             	mov    %rsi,%rax
  40109f:	48 c1 ee 3f          	shr    $0x3f,%rsi
  4010a3:	48 c1 f8 03          	sar    $0x3,%rax
  4010a7:	48 01 c6             	add    %rax,%rsi
  4010aa:	48 d1 fe             	sar    $1,%rsi
  4010ad:	74 19                	je     4010c8 <register_tm_clones+0x38>
  4010af:	48 8b 05 2a 2f 00 00 	mov    0x2f2a(%rip),%rax        # 403fe0 <_ITM_registerTMCloneTable>
  4010b6:	48 85 c0             	test   %rax,%rax
  4010b9:	74 0d                	je     4010c8 <register_tm_clones+0x38>
  4010bb:	bf 10 40 40 00       	mov    $0x404010,%edi
  4010c0:	ff e0                	jmp    *%rax
  4010c2:	66 0f 1f 44 00 00    	nopw   0x0(%rax,%rax,1)
  4010c8:	c3                   	ret
  4010c9:	0f 1f 80 00 00 00 00 	nopl   0x0(%rax)

00000000004010d0 <__do_global_dtors_aux>:
  4010d0:	f3 0f 1e fa          	endbr64
  4010d4:	80 3d 35 2f 00 00 00 	cmpb   $0x0,0x2f35(%rip)        # 404010 <__TMC_END__>
  4010db:	75 13                	jne    4010f0 <__do_global_dtors_aux+0x20>
  4010dd:	55                   	push   %rbp
  4010de:	48 89 e5             	mov    %rsp,%rbp
  4010e1:	e8 7a ff ff ff       	call   401060 <deregister_tm_clones>
  4010e6:	c6 05 23 2f 00 00 01 	movb   $0x1,0x2f23(%rip)        # 404010 <__TMC_END__>
  4010ed:	5d                   	pop    %rbp
  4010ee:	c3                   	ret
  4010ef:	90                   	nop
  4010f0:	c3                   	ret
  4010f1:	0f 1f 40 00          	nopl   0x0(%rax)
  4010f5:	66 66 2e 0f 1f 84 00 	data16 cs nopw 0x0(%rax,%rax,1)
  4010fc:	00 00 00 00 

0000000000401100 <frame_dummy>:
  401100:	f3 0f 1e fa          	endbr64
  401104:	eb 8a                	jmp    401090 <register_tm_clones>

0000000000401106 <main>:
  401106:	55                   	push   %rbp
  401107:	48 89 e5             	mov    %rsp,%rbp
  40110a:	8b 45 fc             	mov    -0x4(%rbp),%eax
  40110d:	8d 05 ed ee bf ff    	lea    -0x401113(%rip),%eax        # 0 <_init-0x401000>
  401113:	b8 00 00 00 00       	mov    $0x0,%eax
  401118:	5d                   	pop    %rbp
  401119:	c3                   	ret

Disassembly of section .fini:

000000000040111c <_fini>:
  40111c:	f3 0f 1e fa          	endbr64
  401120:	48 83 ec 08          	sub    $0x8,%rsp
  401124:	48 83 c4 08          	add    $0x8,%rsp
  401128:	c3                   	ret
